Certificate:
    Data:
        Version: 3 (0x2)
        Serial Number: 4369 (0x1111)
    Signature Algorithm: sha256WithRSAEncryption
        Issuer: C=CN, ST=Guangdong, L=Guangzhou, O=SCUT, OU=CS, CN=M/emailAddress=xcx455206@163.com
        Validity
            Not Before: Nov 20 05:18:31 2018 GMT
            Not After : Nov 20 05:18:31 2019 GMT
        Subject: C=CN, ST=Guangdong, O=SCUT, OU=CS, CN=S/emailAddress=xcx455206@163.com
        Subject Public Key Info:
            Public Key Algorithm: rsaEncryption
                Public-Key: (2048 bit)
                Modulus:
                    00:ae:65:de:25:79:e7:c0:20:bb:e8:24:15:bd:72:
                    ff:ed:f7:84:c0:c5:a7:24:18:af:f6:26:17:cd:20:
                    e1:74:b8:b1:ce:e5:94:90:bd:b9:95:1c:eb:5a:ff:
                    21:b0:9c:0d:b7:61:24:61:10:63:ea:5d:4d:10:75:
                    5d:d9:b1:ef:5c:7a:6d:cf:a2:e5:75:e8:5b:6c:7e:
                    2f:bd:e0:6f:00:fc:ff:a0:77:96:4d:c9:b3:30:15:
                    15:e5:34:06:a0:9c:01:82:4a:02:42:d3:e6:2b:fc:
                    70:9f:53:5b:4e:aa:ba:aa:f6:7e:e8:f8:1f:17:b6:
                    db:be:7d:ff:c0:ee:ed:e3:73:70:91:0f:eb:a9:03:
                    96:b7:24:4d:93:cd:d7:25:13:93:49:1d:c5:30:32:
                    ad:04:e2:93:4c:78:91:22:0e:51:ec:5e:6a:86:67:
                    5d:63:b3:63:ff:99:87:13:e4:02:95:8e:49:09:51:
                    09:7c:b1:6b:74:f9:47:cf:b5:14:d2:19:e8:ff:86:
                    66:15:8e:43:aa:61:46:ca:36:09:2f:31:a5:ef:dd:
                    8b:7e:9a:17:d7:c2:33:a1:6b:71:e5:cf:dc:11:7c:
                    28:af:a4:0d:36:7f:fc:0e:2f:da:02:09:41:82:9a:
                    4f:21:fa:f5:f9:fb:4b:40:ea:2b:09:d2:05:75:7a:
                    04:4f
                Exponent: 65537 (0x10001)
        X509v3 extensions:
            X509v3 Basic Constraints: 
                CA:FALSE
            Netscape Comment: 
                OpenSSL Generated Certificate
            X509v3 Subject Key Identifier: 
                B2:C2:25:AE:4C:D6:EE:4D:0C:0B:5F:8C:02:FF:60:8E:B5:31:61:E9
            X509v3 Authority Key Identifier: 
                keyid:69:B8:6C:41:F9:11:FB:3D:0E:03:FC:6C:9A:EC:9A:27:83:60:32:AE

    Signature Algorithm: sha256WithRSAEncryption
         88:66:b1:24:d2:7c:5e:40:19:0c:d0:d8:6b:93:f5:66:97:5b:
         c7:b0:2e:fd:87:4b:9c:f5:84:05:42:1d:e1:f9:89:59:82:4b:
         77:35:bc:ee:d3:2b:34:cf:11:87:e3:c6:04:b4:28:40:1b:1b:
         9a:16:64:20:14:7b:1c:8d:48:ee:2b:6d:8f:57:50:23:a6:a4:
         84:fd:2c:03:52:f2:a6:a9:d1:a1:5f:f3:72:70:8e:3c:34:84:
         9a:e5:9f:f6:11:1d:8c:ec:24:c3:66:ac:b7:26:36:5e:b1:2d:
         5e:4d:4d:09:7c:7c:81:36:8a:f2:30:bc:00:4b:9b:28:e7:4a:
         f1:bf:4c:a4:ad:1d:75:8e:47:88:53:aa:22:93:8b:66:c6:c5:
         62:8d:a8:78:dc:0e:eb:32:23:8b:64:aa:f1:90:11:14:f4:80:
         10:d5:3e:59:8b:fd:d6:f4:03:7e:aa:0a:11:65:04:72:43:13:
         ee:19:a9:3a:5b:5c:17:bb:7e:aa:cc:8f:f8:48:b8:9c:37:50:
         23:38:bb:af:4c:07:41:67:76:e7:84:cf:bf:9c:8b:66:a1:54:
         15:6e:69:e7:55:ce:ff:b3:33:28:0c:64:69:68:2a:c1:ec:c4:
         e5:69:af:37:38:2d:f4:0b:a9:c3:23:e9:d9:a9:62:d0:a2:2d:
         b5:dd:ff:57
-----BEGIN CERTIFICATE-----
MIID4TCCAsmgAwIBAgICEREwDQYJKoZIhvcNAQELBQAwfzELMAkGA1UEBhMCQ04x
EjAQBgNVBAgMCUd1YW5nZG9uZzESMBAGA1UEBwwJR3Vhbmd6aG91MQ0wCwYDVQQK
DARTQ1VUMQswCQYDVQQLDAJDUzEKMAgGA1UEAwwBTTEgMB4GCSqGSIb3DQEJARYR
eGN4NDU1MjA2QDE2My5jb20wHhcNMTgxMTIwMDUxODMxWhcNMTkxMTIwMDUxODMx
WjBrMQswCQYDVQQGEwJDTjESMBAGA1UECAwJR3Vhbmdkb25nMQ0wCwYDVQQKDART
Q1VUMQswCQYDVQQLDAJDUzEKMAgGA1UEAwwBUzEgMB4GCSqGSIb3DQEJARYReGN4
NDU1MjA2QDE2My5jb20wggEiMA0GCSqGSIb3DQEBAQUAA4IBDwAwggEKAoIBAQCu
Zd4leefAILvoJBW9cv/t94TAxackGK/2JhfNIOF0uLHO5ZSQvbmVHOta/yGwnA23
YSRhEGPqXU0QdV3Zse9cem3PouV16Ftsfi+94G8A/P+gd5ZNybMwFRXlNAagnAGC
SgJC0+Yr/HCfU1tOqrqq9n7o+B8Xttu+ff/A7u3jc3CRD+upA5a3JE2TzdclE5NJ
HcUwMq0E4pNMeJEiDlHsXmqGZ11js2P/mYcT5AKVjkkJUQl8sWt0+UfPtRTSGej/
hmYVjkOqYUbKNgkvMaXv3Yt+mhfXwjOha3Hlz9wRfCivpA02f/wOL9oCCUGCmk8h
+vX5+0tA6isJ0gV1egRPAgMBAAGjezB5MAkGA1UdEwQCMAAwLAYJYIZIAYb4QgEN
BB8WHU9wZW5TU0wgR2VuZXJhdGVkIENlcnRpZmljYXRlMB0GA1UdDgQWBBSywiWu
TNbuTQwLX4wC/2COtTFh6TAfBgNVHSMEGDAWgBRpuGxB+RH7PQ4D/Gya7Jong2Ay
rjANBgkqhkiG9w0BAQsFAAOCAQEAiGaxJNJ8XkAZDNDYa5P1Zpdbx7Au/YdLnPWE
BUId4fmJWYJLdzW87tMrNM8Rh+PGBLQoQBsbmhZkIBR7HI1I7ittj1dQI6akhP0s
A1LypqnRoV/zcnCOPDSEmuWf9hEdjOwkw2astyY2XrEtXk1NCXx8gTaK8jC8AEub
KOdK8b9MpK0ddY5HiFOqIpOLZsbFYo2oeNwO6zIji2Sq8ZARFPSAENU+WYv91vQD
fqoKEWUEckMT7hmpOltcF7t+qsyP+Ei4nDdQIzi7r0wHQWd254TPv5yLZqFUFW5p
51XO/7MzKAxkaWgqwezE5WmvNzgt9AupwyPp2ali0KIttd3/Vw==
-----END CERTIFICATE-----
