Certificate:
    Data:
        Version: 3 (0x2)
        Serial Number: 4370 (0x1112)
    Signature Algorithm: sha256WithRSAEncryption
        Issuer: C=CN, ST=Guangdong, L=Guangzhou, O=SCUT, OU=CS, CN=M/emailAddress=xcx455206@163.com
        Validity
            Not Before: Nov 20 05:21:06 2018 GMT
            Not After : Nov 20 05:21:06 2019 GMT
        Subject: C=CN, ST=Guangdong, O=SCUT, OU=CS, CN=xyp/emailAddress=xcx455206@163.com
        Subject Public Key Info:
            Public Key Algorithm: rsaEncryption
                Public-Key: (1024 bit)
                Modulus:
                    00:b3:f2:08:11:b9:ba:21:e0:31:4c:21:f2:6f:08:
                    05:f7:2b:41:eb:ed:b4:67:37:42:36:93:3a:f3:c8:
                    19:76:f7:9b:45:da:dd:dd:69:75:4b:ec:0b:89:25:
                    f9:d9:d2:95:2f:5e:ed:dc:05:ec:a1:61:2f:d2:64:
                    f9:61:2d:54:9e:73:ef:d2:d5:5a:87:ac:c8:02:8e:
                    bf:bb:8e:7c:0b:71:cd:12:2c:15:5d:62:5f:6d:ca:
                    0a:e4:02:2c:03:dd:3b:21:90:f8:34:38:c0:21:3e:
                    8d:8a:b9:19:38:cb:22:ad:c0:65:e4:bc:cb:4f:4d:
                    1e:67:f7:7b:c1:96:85:b2:0d
                Exponent: 65537 (0x10001)
        X509v3 extensions:
            X509v3 Basic Constraints: 
                CA:FALSE
            Netscape Comment: 
                OpenSSL Generated Certificate
            X509v3 Subject Key Identifier: 
                8B:12:92:1C:75:20:72:9A:C7:D4:25:64:31:62:64:05:A8:9E:72:6D
            X509v3 Authority Key Identifier: 
                keyid:69:B8:6C:41:F9:11:FB:3D:0E:03:FC:6C:9A:EC:9A:27:83:60:32:AE

    Signature Algorithm: sha256WithRSAEncryption
         86:5f:a0:15:33:b0:b2:2d:0a:f3:2d:cd:d6:32:33:27:08:18:
         b4:9a:fd:fd:e4:d6:f6:f8:7b:3b:7a:58:68:3c:0c:6f:65:f3:
         69:98:81:c0:f1:50:1c:b3:f6:3d:fe:01:e8:f7:0d:03:28:db:
         ee:a9:c4:57:ae:37:11:57:56:06:d6:0c:b2:1f:9f:f9:be:ae:
         d5:03:9f:ab:70:17:c5:f9:49:fa:2f:b7:b2:c6:08:f2:69:46:
         c0:bc:02:a3:62:69:50:c8:04:02:f8:08:03:d7:84:5b:05:01:
         17:4b:d1:c0:1a:e6:c5:d2:31:fa:aa:a8:1a:fb:0c:de:57:b3:
         60:57:b4:25:47:ae:5c:98:cb:39:e7:31:83:b1:5c:97:cd:94:
         69:32:6b:ea:17:9d:f0:2c:1b:e0:87:97:41:e8:c6:4c:ac:cf:
         17:1d:f9:79:e7:b4:fb:d3:39:6a:79:c0:6f:68:fa:da:19:98:
         e7:93:85:f2:6d:41:21:0a:d2:75:3b:91:9a:fd:70:4a:d4:3e:
         25:47:4c:cf:7b:10:c4:70:f8:b2:5c:a1:84:e8:5b:9d:99:f1:
         a1:6d:17:63:68:28:58:b8:df:20:31:b9:15:b1:06:24:93:26:
         00:73:99:f6:98:f5:f6:fb:e7:c2:ff:1d:10:3b:84:bd:d6:af:
         ab:cb:a1:5d
-----BEGIN CERTIFICATE-----
MIIDXzCCAkegAwIBAgICERIwDQYJKoZIhvcNAQELBQAwfzELMAkGA1UEBhMCQ04x
EjAQBgNVBAgMCUd1YW5nZG9uZzESMBAGA1UEBwwJR3Vhbmd6aG91MQ0wCwYDVQQK
DARTQ1VUMQswCQYDVQQLDAJDUzEKMAgGA1UEAwwBTTEgMB4GCSqGSIb3DQEJARYR
eGN4NDU1MjA2QDE2My5jb20wHhcNMTgxMTIwMDUyMTA2WhcNMTkxMTIwMDUyMTA2
WjBtMQswCQYDVQQGEwJDTjESMBAGA1UECAwJR3Vhbmdkb25nMQ0wCwYDVQQKDART
Q1VUMQswCQYDVQQLDAJDUzEMMAoGA1UEAwwDeHlwMSAwHgYJKoZIhvcNAQkBFhF4
Y3g0NTUyMDZAMTYzLmNvbTCBnzANBgkqhkiG9w0BAQEFAAOBjQAwgYkCgYEAs/II
Ebm6IeAxTCHybwgF9ytB6+20ZzdCNpM688gZdvebRdrd3Wl1S+wLiSX52dKVL17t
3AXsoWEv0mT5YS1UnnPv0tVah6zIAo6/u458C3HNEiwVXWJfbcoK5AIsA907IZD4
NDjAIT6NirkZOMsircBl5LzLT00eZ/d7wZaFsg0CAwEAAaN7MHkwCQYDVR0TBAIw
ADAsBglghkgBhvhCAQ0EHxYdT3BlblNTTCBHZW5lcmF0ZWQgQ2VydGlmaWNhdGUw
HQYDVR0OBBYEFIsSkhx1IHKax9QlZDFiZAWonnJtMB8GA1UdIwQYMBaAFGm4bEH5
Efs9DgP8bJrsmieDYDKuMA0GCSqGSIb3DQEBCwUAA4IBAQCGX6AVM7CyLQrzLc3W
MjMnCBi0mv395Nb2+Hs7elhoPAxvZfNpmIHA8VAcs/Y9/gHo9w0DKNvuqcRXrjcR
V1YG1gyyH5/5vq7VA5+rcBfF+Un6L7eyxgjyaUbAvAKjYmlQyAQC+AgD14RbBQEX
S9HAGubF0jH6qqga+wzeV7NgV7QlR65cmMs55zGDsVyXzZRpMmvqF53wLBvgh5dB
6MZMrM8XHfl557T70zlqecBvaPraGZjnk4XybUEhCtJ1O5Ga/XBK1D4lR0zPexDE
cPiyXKGE6FudmfGhbRdjaChYuN8gMbkVsQYkkyYAc5n2mPX2++fC/x0QO4S91q+r
y6Fd
-----END CERTIFICATE-----
